; Function Attrs: mustprogress uwtable
define hidden void @_ZN4lean20lean_promise_resolveEP11lean_objectS1_(ptr noundef %0, ptr noundef readonly captures(none) %1) local_unnamed_addr #0 {
  %3 = load ptr, ptr @_ZN4leanL14g_task_managerE, align 8, !tbaa !39
  %4 = getelementptr inbounds nuw i8, ptr %1, i64 8
  %5 = load ptr, ptr %4, align 8, !tbaa !45
  tail call void @lean_inc_heartbeat()
  %6 = tail call noalias ptr @mi_malloc_small(i64 noundef 16) #40
  %7 = icmp eq ptr %6, null
  br i1 %7, label %8, label %_ZN4lean14mk_option_someEP11lean_object.exit

8:                                                ; preds = %2
  tail call void @lean_internal_panic_out_of_memory() #43
  unreachable

_ZN4lean14mk_option_someEP11lean_object.exit:     ; preds = %2
  %9 = getelementptr inbounds nuw i8, ptr %6, i64 4
  store i32 1, ptr %6, align 4, !tbaa !23
  store i32 16842768, ptr %9, align 4
  %10 = getelementptr inbounds nuw i8, ptr %6, i64 8
  store ptr %0, ptr %10, align 8, !tbaa !31
  tail call void @_ZN4lean12task_manager7resolveEP9lean_taskP11lean_object(ptr noundef nonnull align 8 dereferenceable(953) %3, ptr noundef %5, ptr noundef nonnull %6)
  ret void
}